; Function Attrs: mustprogress norecurse uwtable
define hidden noundef range(i32 -1, 1) i32 @main(i32 noundef %0, ptr nocapture noundef readonly %1) local_unnamed_addr #3 personality ptr @__gxx_personality_v0 {
  %3 = alloca %"class.cv::Mat", align 8
  %4 = alloca %"class.cv::Mat", align 8
  %5 = alloca %"class.std::__cxx11::basic_string", align 8
  %6 = alloca %"class.std::allocator", align 1
  %7 = alloca %"class.std::__cxx11::basic_string", align 8
  %8 = alloca %"class.std::allocator", align 1
  %9 = alloca %"class.std::__cxx11::basic_string", align 8
  %10 = alloca %"class.std::allocator", align 1
  %11 = alloca %"class.cv::_InputArray", align 8
  %.not = icmp eq i32 %0, 2
  br i1 %.not, label %18, label %12

12:                                               ; preds = %2
  %13 = tail call noundef nonnull align 8 dereferenceable(8) ptr @_ZStlsISt11char_traitsIcEERSt13basic_ostreamIcT_ES5_PKc(ptr noundef nonnull align 8 dereferenceable(8) @_ZSt4cout, ptr noundef nonnull @.str)
  %14 = load ptr, ptr %1, align 8
  %15 = tail call noundef nonnull align 8 dereferenceable(8) ptr @_ZStlsISt11char_traitsIcEERSt13basic_ostreamIcT_ES5_PKc(ptr noundef nonnull align 8 dereferenceable(8) %13, ptr noundef %14)
  %16 = tail call noundef nonnull align 8 dereferenceable(8) ptr @_ZStlsISt11char_traitsIcEERSt13basic_ostreamIcT_ES5_PKc(ptr noundef nonnull align 8 dereferenceable(8) %15, ptr noundef nonnull @.str.1)
  %17 = tail call noundef nonnull align 8 dereferenceable(8) ptr @_ZNSolsEPFRSoS_E(ptr noundef nonnull align 8 dereferenceable(8) %16, ptr noundef nonnull @_ZSt4endlIcSt11char_traitsIcEERSt13basic_ostreamIT_T0_ES6_)
  br label %62

18:                                               ; preds = %2
  call void @_ZN2cv3MatC1Ev(ptr noundef nonnull align 8 dereferenceable(96) %3) #5
  %19 = getelementptr inbounds i8, ptr %1, i64 8
  %20 = load ptr, ptr %19, align 8
  call void @_ZNSaIcEC1Ev(ptr noundef nonnull align 1 dereferenceable(1) %6) #5
  invoke void @_ZNSt7__cxx1112basic_stringIcSt11char_traitsIcESaIcEEC1EPKcRKS3_(ptr noundef nonnull align 8 dereferenceable(32) %5, ptr noundef %20, ptr noundef nonnull align 1 dereferenceable(1) %6)
          to label %21 unwind label %31

21:                                               ; preds = %18
  invoke void @_ZN2cv6imreadERKNSt7__cxx1112basic_stringIcSt11char_traitsIcESaIcEEEi(ptr dead_on_unwind nonnull writable sret(%"class.cv::Mat") align 8 %4, ptr noundef nonnull align 8 dereferenceable(32) %5, i32 noundef 1)
          to label %22 unwind label %33

22:                                               ; preds = %21
  %23 = invoke noundef nonnull align 8 dereferenceable(96) ptr @_ZN2cv3MataSEOS0_(ptr noundef nonnull align 8 dereferenceable(96) %3, ptr noundef nonnull align 8 dereferenceable(96) %4)
          to label %24 unwind label %35

24:                                               ; preds = %22
  call void @_ZN2cv3MatD1Ev(ptr noundef nonnull align 8 dereferenceable(96) %4) #5
  call void @_ZNSt7__cxx1112basic_stringIcSt11char_traitsIcESaIcEED1Ev(ptr noundef nonnull align 8 dereferenceable(32) %5) #5
  call void @_ZNSaIcED1Ev(ptr noundef nonnull align 1 dereferenceable(1) %6) #5
  %25 = invoke noundef zeroext i1 @_ZNK2cv3Mat5emptyEv(ptr noundef nonnull align 8 dereferenceable(96) %3)
          to label %26 unwind label %39

26:                                               ; preds = %24
  br i1 %25, label %27, label %41

27:                                               ; preds = %26
  %28 = invoke noundef nonnull align 8 dereferenceable(8) ptr @_ZStlsISt11char_traitsIcEERSt13basic_ostreamIcT_ES5_PKc(ptr noundef nonnull align 8 dereferenceable(8) @_ZSt4cout, ptr noundef nonnull @.str.2)
          to label %29 unwind label %39

29:                                               ; preds = %27
  %30 = invoke noundef nonnull align 8 dereferenceable(8) ptr @_ZNSolsEPFRSoS_E(ptr noundef nonnull align 8 dereferenceable(8) %28, ptr noundef nonnull @_ZSt4endlIcSt11char_traitsIcEERSt13basic_ostreamIT_T0_ES6_)
          to label %60 unwind label %39

31:                                               ; preds = %18
  %32 = landingpad { ptr, i32 }
          cleanup
  br label %38

33:                                               ; preds = %21
  %34 = landingpad { ptr, i32 }
          cleanup
  br label %37

35:                                               ; preds = %22
  %36 = landingpad { ptr, i32 }
          cleanup
  call void @_ZN2cv3MatD1Ev(ptr noundef nonnull align 8 dereferenceable(96) %4) #5
  br label %37

37:                                               ; preds = %35, %33
  %.pn = phi { ptr, i32 } [ %36, %35 ], [ %34, %33 ]
  call void @_ZNSt7__cxx1112basic_stringIcSt11char_traitsIcESaIcEED1Ev(ptr noundef nonnull align 8 dereferenceable(32) %5) #5
  br label %38

38:                                               ; preds = %37, %31
  %.pn.pn = phi { ptr, i32 } [ %.pn, %37 ], [ %32, %31 ]
  call void @_ZNSaIcED1Ev(ptr noundef nonnull align 1 dereferenceable(1) %6) #5
  br label %61

39:                                               ; preds = %48, %29, %27, %24
  %40 = landingpad { ptr, i32 }
          cleanup
  br label %61

41:                                               ; preds = %26
  call void @_ZNSaIcEC1Ev(ptr noundef nonnull align 1 dereferenceable(1) %8) #5
  invoke void @_ZNSt7__cxx1112basic_stringIcSt11char_traitsIcESaIcEEC1EPKcRKS3_(ptr noundef nonnull align 8 dereferenceable(32) %7, ptr noundef nonnull @.str.3, ptr noundef nonnull align 1 dereferenceable(1) %8)
          to label %42 unwind label %50

42:                                               ; preds = %41
  invoke void @_ZN2cv11namedWindowERKNSt7__cxx1112basic_stringIcSt11char_traitsIcESaIcEEEi(ptr noundef nonnull align 8 dereferenceable(32) %7, i32 noundef 1)
          to label %43 unwind label %52

43:                                               ; preds = %42
  call void @_ZNSt7__cxx1112basic_stringIcSt11char_traitsIcESaIcEED1Ev(ptr noundef nonnull align 8 dereferenceable(32) %7) #5
  call void @_ZNSaIcED1Ev(ptr noundef nonnull align 1 dereferenceable(1) %8) #5
  call void @_ZNSaIcEC1Ev(ptr noundef nonnull align 1 dereferenceable(1) %10) #5
  invoke void @_ZNSt7__cxx1112basic_stringIcSt11char_traitsIcESaIcEEC1EPKcRKS3_(ptr noundef nonnull align 8 dereferenceable(32) %9, ptr noundef nonnull @.str.3, ptr noundef nonnull align 1 dereferenceable(1) %10)
          to label %44 unwind label %55

44:                                               ; preds = %43
  %45 = getelementptr inbounds i8, ptr %11, i64 16
  store i32 0, ptr %45, align 8
  %46 = getelementptr inbounds i8, ptr %11, i64 20
  store i32 0, ptr %46, align 4
  store i32 16842752, ptr %11, align 8
  %47 = getelementptr inbounds i8, ptr %11, i64 8
  store ptr %3, ptr %47, align 8
  invoke void @_ZN2cv6imshowERKNSt7__cxx1112basic_stringIcSt11char_traitsIcESaIcEEERKNS_11_InputArrayE(ptr noundef nonnull align 8 dereferenceable(32) %9, ptr noundef nonnull align 8 dereferenceable(24) %11)
          to label %48 unwind label %57

48:                                               ; preds = %44
  call void @_ZNSt7__cxx1112basic_stringIcSt11char_traitsIcESaIcEED1Ev(ptr noundef nonnull align 8 dereferenceable(32) %9) #5
  call void @_ZNSaIcED1Ev(ptr noundef nonnull align 1 dereferenceable(1) %10) #5
  %49 = invoke noundef i32 @_ZN2cv7waitKeyEi(i32 noundef 0)
          to label %60 unwind label %39

50:                                               ; preds = %41
  %51 = landingpad { ptr, i32 }
          cleanup
  br label %54

52:                                               ; preds = %42
  %53 = landingpad { ptr, i32 }
          cleanup
  call void @_ZNSt7__cxx1112basic_stringIcSt11char_traitsIcESaIcEED1Ev(ptr noundef nonnull align 8 dereferenceable(32) %7) #5
  br label %54

54:                                               ; preds = %52, %50
  %.pn15 = phi { ptr, i32 } [ %53, %52 ], [ %51, %50 ]
  call void @_ZNSaIcED1Ev(ptr noundef nonnull align 1 dereferenceable(1) %8) #5
  br label %61

55:                                               ; preds = %43
  %56 = landingpad { ptr, i32 }
          cleanup
  br label %59

57:                                               ; preds = %44
  %58 = landingpad { ptr, i32 }
          cleanup
  call void @_ZNSt7__cxx1112basic_stringIcSt11char_traitsIcESaIcEED1Ev(ptr noundef nonnull align 8 dereferenceable(32) %9) #5
  br label %59

59:                                               ; preds = %57, %55
  %.pn17.pn = phi { ptr, i32 } [ %58, %57 ], [ %56, %55 ]
  call void @_ZNSaIcED1Ev(ptr noundef nonnull align 1 dereferenceable(1) %10) #5
  br label %61

60:                                               ; preds = %48, %29
  %.011 = phi i32 [ -1, %29 ], [ 0, %48 ]
  call void @_ZN2cv3MatD1Ev(ptr noundef nonnull align 8 dereferenceable(96) %3) #5
  br label %62

61:                                               ; preds = %59, %54, %39, %38
  %.pn20 = phi { ptr, i32 } [ %40, %39 ], [ %.pn17.pn, %59 ], [ %.pn15, %54 ], [ %.pn.pn, %38 ]
  call void @_ZN2cv3MatD1Ev(ptr noundef nonnull align 8 dereferenceable(96) %3) #5
  resume { ptr, i32 } %.pn20

62:                                               ; preds = %60, %12
  %.112 = phi i32 [ -1, %12 ], [ %.011, %60 ]
  ret i32 %.112
}